target datalayout = "e-m:e-p270:32:32-p271:32:32-p272:64:64-i64:64-i128:128-f80:128-n8:16:32:64-S128"
target triple = "x86_64-pc-linux-gnu"

%class.LibRaw = type { ptr, %struct.libraw_data_t, ptr, %struct.libraw_internal_data_t, [2048 x %struct.decode], ptr, ptr, [10 x %struct.tiff_ifd_t], %class.libraw_memmgr, %struct.libraw_callbacks_t, { i64, i64 }, { i64, i64 }, { i64, i64 }, ptr, ptr, ptr, i64, ptr, ptr, ptr, ptr }
%struct.libraw_data_t = type { ptr, %struct.libraw_image_sizes_t, %struct.libraw_iparams_t, %struct.libraw_lensinfo_t, %struct.libraw_makernotes_t, %struct.libraw_shootinginfo_t, %struct.libraw_output_params_t, %struct.libraw_raw_unpack_params_t, i32, i32, %struct.libraw_colordata_t, %struct.libraw_imgother_t, %struct.libraw_thumbnail_t, %struct.libraw_thumbnail_list_t, %struct.libraw_rawdata_t, ptr }
%struct.libraw_image_sizes_t = type { i16, i16, i16, i16, i16, i16, i16, i16, i32, double, i32, [8 x [4 x i32]], i16, [2 x %struct.libraw_raw_inset_crop_t] }
%struct.libraw_raw_inset_crop_t = type { i16, i16, i16, i16 }
%struct.libraw_iparams_t = type { [4 x i8], [64 x i8], [64 x i8], [64 x i8], [64 x i8], [64 x i8], i32, i32, i32, i32, i32, i32, [6 x [6 x i8]], [6 x [6 x i8]], [5 x i8], i32, ptr }
%struct.libraw_lensinfo_t = type { float, float, float, float, float, [128 x i8], [128 x i8], [128 x i8], [128 x i8], i16, %struct.libraw_nikonlens_t, %struct.libraw_dnglens_t, %struct.libraw_makernotes_lens_t }
%struct.libraw_nikonlens_t = type { float, i8, i8, i8, i8 }
%struct.libraw_dnglens_t = type { float, float, float, float }
%struct.libraw_makernotes_lens_t = type { i64, [128 x i8], i16, i16, i64, i16, i16, [64 x i8], i16, [16 x i8], [16 x i8], float, float, float, float, float, float, float, float, float, float, float, float, float, float, float, i64, [128 x i8], i64, [128 x i8], i64, [128 x i8], i16, float }
%struct.libraw_makernotes_t = type { %struct.libraw_canon_makernotes_t, %struct.libraw_nikon_makernotes_t, %struct.libraw_hasselblad_makernotes_t, %struct.libraw_fuji_info_t, %struct.libraw_olympus_makernotes_t, %struct.libraw_sony_info_t, %struct.libraw_kodak_makernotes_t, %struct.libraw_panasonic_makernotes_t, %struct.libraw_pentax_makernotes_t, %struct.libraw_p1_makernotes_t, %struct.libraw_ricoh_makernotes_t, %struct.libraw_samsung_makernotes_t, %struct.libraw_metadata_common_t }
%struct.libraw_canon_makernotes_t = type { i32, i32, i32, i32, [4 x i32], i32, [4 x i32], i16, i16, i8, i16, i16, i16, i16, i16, i16, i16, i16, i16, i16, i16, i16, i16, i32, float, i16, i16, i16, i32, i16, i32, i32, i16, i32, %struct.libraw_area_t, %struct.libraw_area_t, %struct.libraw_area_t, %struct.libraw_area_t, %struct.libraw_area_t, [2 x i16] }
%struct.libraw_area_t = type { i16, i16, i16, i16 }
%struct.libraw_nikon_makernotes_t = type { double, i16, i16, [7 x i8], i8, i8, [13 x i8], [20 x i8], [4 x i8], [4 x i8], [4 x i8], i8, i8, i8, i8, i8, [2 x i8], i8, i8, i8, i8, i8, [4 x i8], [4 x i8], i8, i16, i32, i32, i32, i32, [4 x double], i8, i8, i8, i32, i32, i32, i8, [4 x i16], i16, %struct.libraw_sensor_highspeed_crop_t, i16, i16, i16, i32, [20 x i8], [20 x i8], i32, i16, double, double, double }
%struct.libraw_sensor_highspeed_crop_t = type { i16, i16, i16, i16 }
%struct.libraw_hasselblad_makernotes_t = type { i32, double, [8 x i8], [64 x i8], [64 x i8], i32, i32, i32, i32, [32 x i8], [64 x i8], i32, [2 x i32], [2 x i32], [4 x [3 x double]] }
%struct.libraw_fuji_info_t = type { float, i16, i16, i16, i16, i16, i16, i16, i16, [33 x i8], [33 x i8], float, i16, i16, [2 x i16], i16, i32, i32, i16, [3 x i16], i16, i16, i16, i16, i16, i32, i16, [13 x i8], [5 x i8], [5 x i8], i32, i16, i32, i16, [9 x i16], [32 x i32], i32, i32, i32, [2 x float], i32 }
%struct.libraw_olympus_makernotes_t = type { [6 x i8], i16, [2 x i32], [5 x i16], i16, [2 x i16], i16, i16, [64 x i32], [5 x double], i16, i8, [3 x i16], [3 x i32], i16, i16, i16, i16, double, [4 x i16], [2 x i32], i8, i32, i16, i16 }
%struct.libraw_sony_info_t = type { i16, i8, i8, i32, i8, i32, i8, i8, i16, [2 x i16], i8, i8, i16, [10 x i8], i8, i8, [4 x i16], i16, i8, i8, i8, i16, i32, i16, [2 x i16], i16, i16, i16, i16, i16, i16, i16, i32, float, i16, i32, i32, i16, [20 x i8], i32, i16, i32, i8, i8, i16, i16, i16, i16, i16, i16, i16, i16, i16, i32, i16, [16 x i8], float }
%struct.libraw_kodak_makernotes_t = type { i16, i16, i16, i16, i16, i16, [3 x [3 x float]], [3 x [3 x float]], [3 x [3 x float]], [3 x [3 x float]], [3 x [3 x float]], [3 x [3 x float]], i16, i16, i16, i16, float, float }
%struct.libraw_panasonic_makernotes_t = type { i16, i16, [8 x float], i32, float, [3 x i32], i16, i16, i32, i32 }
%struct.libraw_pentax_makernotes_t = type { [4 x i8], [2 x i16], [2 x i16], i16, i32, i32, i16, i16, i8, i8, i16 }
%struct.libraw_p1_makernotes_t = type { [64 x i8], [64 x i8], [256 x i8], [64 x i8] }
%struct.libraw_ricoh_makernotes_t = type { i16, [2 x i32], [2 x i32], i16, i32, i32, i32, i32, i16, i16, i16, i16, i16, i16, double, double }
%struct.libraw_samsung_makernotes_t = type { [4 x i32], [4 x i32], [2 x i32], [11 x i32], double, i32, [32 x i8] }
%struct.libraw_metadata_common_t = type { float, float, float, float, float, float, float, float, float, float, float, float, float, float, float, float, i16, [128 x i8], float, [4 x %struct.libraw_afinfo_item_t], i32 }
%struct.libraw_afinfo_item_t = type { i32, i16, i32, i32, ptr }
%struct.libraw_shootinginfo_t = type { i16, i16, i16, i16, i16, i16, i16, [64 x i8], [64 x i8] }
%struct.libraw_output_params_t = type { [4 x i32], [4 x i32], [4 x double], [6 x double], [4 x float], float, float, i32, i32, i32, i32, i32, i32, i32, ptr, ptr, ptr, ptr, i32, i32, i32, i32, i32, i32, [4 x i32], i32, i32, float, float, i32, i32, i32, i32, i32, i32, i32, i32, float, float, i32, i32 }
%struct.libraw_raw_unpack_params_t = type { i32, i32, i32, i32, i32, i32, i32, float, [5 x i8], ptr }
%struct.libraw_colordata_t = type { [65536 x i16], [4104 x i32], i32, i32, i32, [4 x i64], float, float, [8 x [8 x i16]], [4 x float], [4 x float], [3 x [4 x float]], [3 x [4 x float]], [3 x [4 x float]], [4 x [3 x float]], %struct.ph1_t, float, float, [64 x i8], [64 x i8], [64 x i8], [64 x i8], [17 x i8], [64 x i8], ptr, i32, [8 x i32], [2 x %struct.libraw_dng_color_t], %struct.libraw_dng_levels_t, [256 x [4 x i32]], [64 x [5 x float]], i32, [2 x %struct.libraw_P1_color_t], i32, i32 }
%struct.ph1_t = type { i32, i32, i32, i32, i32, i32, i32, i32, float }
%struct.libraw_dng_color_t = type { i32, i16, [4 x [4 x float]], [4 x [3 x float]], [3 x [4 x float]] }
%struct.libraw_dng_levels_t = type { i32, [4104 x i32], i32, [4104 x float], float, [4 x i32], [4 x i16], [4 x float], i32, [4 x float], [4 x float], float, float }
%struct.libraw_P1_color_t = type { [9 x float] }
%struct.libraw_imgother_t = type { float, float, float, float, i64, i32, [32 x i32], %struct.libraw_gps_info_t, [512 x i8], [64 x i8], [4 x float] }
%struct.libraw_gps_info_t = type { [3 x float], [3 x float], [3 x float], float, i8, i8, i8, i8, i8 }
%struct.libraw_thumbnail_t = type { i32, i16, i16, i32, i32, ptr }
%struct.libraw_thumbnail_list_t = type { i32, [8 x %struct.libraw_thumbnail_item_t] }
%struct.libraw_thumbnail_item_t = type { i32, i16, i16, i16, i32, i32, i64 }
%struct.libraw_rawdata_t = type { ptr, ptr, ptr, ptr, ptr, ptr, ptr, ptr, ptr, %struct.libraw_iparams_t, %struct.libraw_image_sizes_t, %struct.libraw_internal_output_params_t, %struct.libraw_colordata_t }
%struct.libraw_internal_output_params_t = type { i32, i32, i32, i16, i16 }
%struct.libraw_internal_data_t = type { %struct.internal_data_t, %struct.libraw_internal_output_params_t, %struct.output_data_t, %struct.identify_data_t, %struct.unpacker_data_t }
%struct.internal_data_t = type { ptr, ptr, i32, ptr, i64, i64, [4 x i32] }
%struct.output_data_t = type { ptr, ptr }
%struct.identify_data_t = type { i32, i64, i64, i32, i32, i32 }
%struct.unpacker_data_t = type { i16, [4 x i16], [3 x i16], i32, i64, i64, i64, i64, i64, i64, i32, i32, i32, i32, i32, i32, i32, i32, i32, i32, i32, i32, i32, i32, i32, i32, i32, i64, i32, i32, i32, i32, i32, i32, i32, i32, i32, %struct.pana8_tags_t, [16 x %struct.crx_data_header_t], i32, i32, i16, i16, i32, i32, i32, i32, i32, i32, i32, [20 x i32], i16 }
%struct.pana8_tags_t = type { [6 x i32], [6 x i16], i16, [4 x i16], [17 x i16], [17 x i16], [17 x i16], i16, i16, [5 x i64], [5 x i16], [5 x i32], [5 x i16], [5 x i16] }
%struct.crx_data_header_t = type { i32, i32, i32, i32, i32, i32, i32, i32, i32, i32, i32, i32, i32, i32, i32, i64, i32, ptr, i32, i32, i32, ptr, i32, ptr }
%struct.decode = type { [2 x ptr], i32 }
%struct.tiff_ifd_t = type { i32, i32, i32, i32, i32, i32, i32, i32, i32, i32, i32, i32, i32, i32, i32, ptr, i32, ptr, i32, i32, i32, i32, i32, i32, i32, float, i64, i64, i32, [2 x %struct.libraw_dng_color_t], %struct.libraw_dng_levels_t, i32 }
%class.libraw_memmgr = type <{ ptr, i32, [4 x i8] }>
%struct.libraw_callbacks_t = type { ptr, ptr, ptr, ptr, ptr, ptr, ptr, ptr, ptr, ptr, ptr, ptr, ptr, ptr, ptr, ptr, ptr }

; Function Attrs: mustprogress uwtable
define void @_ZN6LibRaw22android_loose_load_rawEv(ptr noundef nonnull align 8 dereferenceable(767680) %0) #0 align 2 {
  %2 = alloca ptr, align 8
  %3 = alloca ptr, align 8
  %4 = alloca ptr, align 8
  %5 = alloca i32, align 4
  %6 = alloca i32, align 4
  %7 = alloca i32, align 4
  %8 = alloca i32, align 4
  %9 = alloca i64, align 8
  store ptr %0, ptr %2, align 8, !tbaa !6
  %10 = load ptr, ptr %2, align 8
  call void @llvm.lifetime.start.p0(i64 8, ptr %3) #13
  call void @llvm.lifetime.start.p0(i64 8, ptr %4) #13
  call void @llvm.lifetime.start.p0(i64 4, ptr %5) #13
  call void @llvm.lifetime.start.p0(i64 4, ptr %6) #13
  call void @llvm.lifetime.start.p0(i64 4, ptr %7) #13
  call void @llvm.lifetime.start.p0(i64 4, ptr %8) #13
  call void @llvm.lifetime.start.p0(i64 8, ptr %9) #13
  store i64 0, ptr %9, align 8, !tbaa !83
  %11 = getelementptr inbounds nuw %class.LibRaw, ptr %10, i32 0, i32 1
  %12 = getelementptr inbounds nuw %struct.libraw_data_t, ptr %11, i32 0, i32 1
  %13 = getelementptr inbounds nuw %struct.libraw_image_sizes_t, ptr %12, i32 0, i32 1
  %14 = load i16, ptr %13, align 2, !tbaa !74
  %15 = zext i16 %14 to i32
  %16 = add nsw i32 %15, 5
  %17 = sdiv i32 %16, 6
  %18 = shl i32 %17, 3
  store i32 %18, ptr %5, align 4, !tbaa !73
  %19 = load i32, ptr %5, align 4, !tbaa !73
  %20 = sext i32 %19 to i64
  %21 = call noundef ptr @_ZN6LibRaw6callocEmm(ptr noundef nonnull align 8 dereferenceable(767680) %10, i64 noundef %20, i64 noundef 1)
  store ptr %21, ptr %3, align 8, !tbaa !109
  store i32 0, ptr %6, align 4, !tbaa !73
  br label %22

22:                                               ; preds = %112, %1
  %23 = load i32, ptr %6, align 4, !tbaa !73
  %24 = getelementptr inbounds nuw %class.LibRaw, ptr %10, i32 0, i32 1
  %25 = getelementptr inbounds nuw %struct.libraw_data_t, ptr %24, i32 0, i32 1
  %26 = getelementptr inbounds nuw %struct.libraw_image_sizes_t, ptr %25, i32 0, i32 0
  %27 = load i16, ptr %26, align 8, !tbaa !79
  %28 = zext i16 %27 to i32
  %29 = icmp slt i32 %23, %28
  br i1 %29, label %30, label %115

30:                                               ; preds = %22
  %31 = getelementptr inbounds nuw %class.LibRaw, ptr %10, i32 0, i32 3
  %32 = getelementptr inbounds nuw %struct.libraw_internal_data_t, ptr %31, i32 0, i32 0
  %33 = getelementptr inbounds nuw %struct.internal_data_t, ptr %32, i32 0, i32 0
  %34 = load ptr, ptr %33, align 8, !tbaa !80
  %35 = load ptr, ptr %3, align 8, !tbaa !109
  %36 = load i32, ptr %5, align 4, !tbaa !73
  %37 = sext i32 %36 to i64
  %38 = load ptr, ptr %34, align 8, !tbaa !81
  %39 = getelementptr inbounds ptr, ptr %38, i64 3
  %40 = load ptr, ptr %39, align 8
  %41 = call noundef i32 %40(ptr noundef nonnull align 8 dereferenceable(8) %34, ptr noundef %35, i64 noundef 1, i64 noundef %37)
  %42 = load i32, ptr %5, align 4, !tbaa !73
  %43 = icmp slt i32 %41, %42
  br i1 %43, label %44, label %45

44:                                               ; preds = %30
  call void @_ZN6LibRaw6derrorEv(ptr noundef nonnull align 8 dereferenceable(767680) %10)
  br label %45

45:                                               ; preds = %44, %30
  %46 = load ptr, ptr %3, align 8, !tbaa !109
  store ptr %46, ptr %4, align 8, !tbaa !109
  store i32 0, ptr %7, align 4, !tbaa !73
  br label %47

47:                                               ; preds = %106, %45
  %48 = load i32, ptr %7, align 4, !tbaa !73
  %49 = getelementptr inbounds nuw %class.LibRaw, ptr %10, i32 0, i32 1
  %50 = getelementptr inbounds nuw %struct.libraw_data_t, ptr %49, i32 0, i32 1
  %51 = getelementptr inbounds nuw %struct.libraw_image_sizes_t, ptr %50, i32 0, i32 1
  %52 = load i16, ptr %51, align 2, !tbaa !74
  %53 = zext i16 %52 to i32
  %54 = icmp slt i32 %48, %53
  br i1 %54, label %55, label %111

55:                                               ; preds = %47
  store i32 0, ptr %8, align 4, !tbaa !73
  br label %56

56:                                               ; preds = %70, %55
  %57 = load i32, ptr %8, align 4, !tbaa !73
  %58 = icmp slt i32 %57, 8
  br i1 %58, label %59, label %73

59:                                               ; preds = %56
  %60 = load i64, ptr %9, align 8, !tbaa !83
  %61 = shl i64 %60, 8
  %62 = load ptr, ptr %4, align 8, !tbaa !109
  %63 = load i32, ptr %8, align 4, !tbaa !73
  %64 = xor i32 %63, 7
  %65 = sext i32 %64 to i64
  %66 = getelementptr inbounds i8, ptr %62, i64 %65
  %67 = load i8, ptr %66, align 1, !tbaa !113
  %68 = zext i8 %67 to i64
  %69 = or i64 %61, %68
  store i64 %69, ptr %9, align 8, !tbaa !83
  br label %70

70:                                               ; preds = %59
  %71 = load i32, ptr %8, align 4, !tbaa !73
  %72 = add nsw i32 %71, 1
  store i32 %72, ptr %8, align 4, !tbaa !73
  br label %56, !llvm.loop !137

73:                                               ; preds = %56
  store i32 0, ptr %8, align 4, !tbaa !73
  br label %74

74:                                               ; preds = %102, %73
  %75 = load i32, ptr %8, align 4, !tbaa !73
  %76 = icmp slt i32 %75, 6
  br i1 %76, label %77, label %105

77:                                               ; preds = %74
  %78 = load i64, ptr %9, align 8, !tbaa !83
  %79 = load i32, ptr %8, align 4, !tbaa !73
  %80 = mul nsw i32 %79, 10
  %81 = zext i32 %80 to i64
  %82 = lshr i64 %78, %81
  %83 = and i64 %82, 1023
  %84 = trunc i64 %83 to i16
  %85 = getelementptr inbounds nuw %class.LibRaw, ptr %10, i32 0, i32 1
  %86 = getelementptr inbounds nuw %struct.libraw_data_t, ptr %85, i32 0, i32 14
  %87 = getelementptr inbounds nuw %struct.libraw_rawdata_t, ptr %86, i32 0, i32 1
  %88 = load ptr, ptr %87, align 8, !tbaa !102
  %89 = load i32, ptr %6, align 4, !tbaa !73
  %90 = getelementptr inbounds nuw %class.LibRaw, ptr %10, i32 0, i32 1
  %91 = getelementptr inbounds nuw %struct.libraw_data_t, ptr %90, i32 0, i32 1
  %92 = getelementptr inbounds nuw %struct.libraw_image_sizes_t, ptr %91, i32 0, i32 1
  %93 = load i16, ptr %92, align 2, !tbaa !74
  %94 = zext i16 %93 to i32
  %95 = mul nsw i32 %89, %94
  %96 = load i32, ptr %7, align 4, !tbaa !73
  %97 = load i32, ptr %8, align 4, !tbaa !73
  %98 = add nsw i32 %96, %97
  %99 = add nsw i32 %95, %98
  %100 = sext i32 %99 to i64
  %101 = getelementptr inbounds i16, ptr %88, i64 %100
  store i16 %84, ptr %101, align 2, !tbaa !86
  br label %102

102:                                              ; preds = %77
  %103 = load i32, ptr %8, align 4, !tbaa !73
  %104 = add nsw i32 %103, 1
  store i32 %104, ptr %8, align 4, !tbaa !73
  br label %74, !llvm.loop !138

105:                                              ; preds = %74
  br label %106

106:                                              ; preds = %105
  %107 = load ptr, ptr %4, align 8, !tbaa !109
  %108 = getelementptr inbounds i8, ptr %107, i64 8
  store ptr %108, ptr %4, align 8, !tbaa !109
  %109 = load i32, ptr %7, align 4, !tbaa !73
  %110 = add nsw i32 %109, 6
  store i32 %110, ptr %7, align 4, !tbaa !73
  br label %47, !llvm.loop !139

111:                                              ; preds = %47
  br label %112

112:                                              ; preds = %111
  %113 = load i32, ptr %6, align 4, !tbaa !73
  %114 = add nsw i32 %113, 1
  store i32 %114, ptr %6, align 4, !tbaa !73
  br label %22, !llvm.loop !140

115:                                              ; preds = %22
  %116 = load ptr, ptr %3, align 8, !tbaa !109
  call void @_ZN6LibRaw4freeEPv(ptr noundef nonnull align 8 dereferenceable(767680) %10, ptr noundef %116)
  call void @llvm.lifetime.end.p0(i64 8, ptr %9) #13
  call void @llvm.lifetime.end.p0(i64 4, ptr %8) #13
  call void @llvm.lifetime.end.p0(i64 4, ptr %7) #13
  call void @llvm.lifetime.end.p0(i64 4, ptr %6) #13
  call void @llvm.lifetime.end.p0(i64 4, ptr %5) #13
  call void @llvm.lifetime.end.p0(i64 8, ptr %4) #13
  call void @llvm.lifetime.end.p0(i64 8, ptr %3) #13
  ret void
}