; Function Attrs: mustprogress uwtable
define void @_ZN6LibRaw22android_loose_load_rawEv(ptr noundef nonnull align 8 dereferenceable(767680) %0) local_unnamed_addr #0 align 2 {
  %2 = getelementptr inbounds nuw i8, ptr %0, i64 16
  %3 = getelementptr inbounds nuw i8, ptr %0, i64 18
  %4 = load i16, ptr %3, align 2, !tbaa !72
  %5 = zext i16 %4 to i32
  %6 = add nuw nsw i32 %5, 5
  %7 = udiv i32 %6, 6
  %8 = shl nuw nsw i32 %7, 3
  %9 = zext nneg i32 %8 to i64
  %10 = tail call noundef ptr @_ZN6LibRaw6callocEmm(ptr noundef nonnull align 8 dereferenceable(767680) %0, i64 noundef %9, i64 noundef 1)
  %11 = load i16, ptr %2, align 8, !tbaa !78
  %.not = icmp eq i16 %11, 0
  br i1 %.not, label %._crit_edge38, label %.lr.ph

.lr.ph:                                           ; preds = %1
  %12 = getelementptr inbounds nuw i8, ptr %0, i64 381416
  %13 = getelementptr inbounds nuw i8, ptr %0, i64 193648
  br label %14

14:                                               ; preds = %.lr.ph, %._crit_edge
  %.036 = phi i64 [ 0, %.lr.ph ], [ %.1.lcssa, %._crit_edge ]
  %.02635 = phi i32 [ 0, %.lr.ph ], [ %49, %._crit_edge ]
  %15 = load ptr, ptr %12, align 8, !tbaa !79
  %16 = load ptr, ptr %15, align 8, !tbaa !80
  %17 = getelementptr inbounds nuw i8, ptr %16, i64 24
  %18 = load ptr, ptr %17, align 8
  %19 = tail call noundef i32 %18(ptr noundef nonnull align 8 dereferenceable(8) %15, ptr noundef %10, i64 noundef 1, i64 noundef %9)
  %20 = icmp slt i32 %19, %8
  br i1 %20, label %21, label %22

21:                                               ; preds = %14
  tail call void @_ZN6LibRaw6derrorEv(ptr noundef nonnull align 8 dereferenceable(767680) %0)
  br label %22

22:                                               ; preds = %21, %14
  %23 = load i16, ptr %3, align 2, !tbaa !72
  %.not39 = icmp eq i16 %23, 0
  br i1 %.not39, label %._crit_edge, label %.preheader28.lr.ph

.preheader28.lr.ph:                               ; preds = %22
  %24 = load ptr, ptr %13, align 8, !tbaa !101
  br label %.preheader28

.preheader28:                                     ; preds = %.preheader28.lr.ph, %44
  %indvars.iv42 = phi i64 [ 0, %.preheader28.lr.ph ], [ %indvars.iv.next43, %44 ]
  %.134 = phi i64 [ %.036, %.preheader28.lr.ph ], [ %32, %44 ]
  %.02732 = phi ptr [ %10, %.preheader28.lr.ph ], [ %45, %44 ]
  br label %25

.preheader:                                       ; preds = %25
  %invariant.gep = getelementptr inbounds nuw i16, ptr %24, i64 %indvars.iv42
  br label %34

25:                                               ; preds = %.preheader28, %25
  %.230 = phi i64 [ %.134, %.preheader28 ], [ %32, %25 ]
  %.02329 = phi i32 [ 0, %.preheader28 ], [ %33, %25 ]
  %26 = shl i64 %.230, 8
  %27 = xor i32 %.02329, 7
  %28 = zext nneg i32 %27 to i64
  %29 = getelementptr inbounds nuw i8, ptr %.02732, i64 %28
  %30 = load i8, ptr %29, align 1, !tbaa !103
  %31 = zext i8 %30 to i64
  %32 = or disjoint i64 %26, %31
  %33 = add nuw nsw i32 %.02329, 1
  %exitcond.not = icmp eq i32 %33, 8
  br i1 %exitcond.not, label %.preheader, label %25, !llvm.loop !120

34:                                               ; preds = %.preheader, %34
  %indvars.iv = phi i64 [ 0, %.preheader ], [ %indvars.iv.next, %34 ]
  %35 = mul nuw nsw i64 %indvars.iv, 10
  %36 = lshr i64 %32, %35
  %37 = trunc i64 %36 to i16
  %38 = and i16 %37, 1023
  %39 = load i16, ptr %3, align 2, !tbaa !72
  %40 = zext i16 %39 to i32
  %41 = mul nuw nsw i32 %.02635, %40
  %42 = zext nneg i32 %41 to i64
  %gep = getelementptr inbounds nuw i16, ptr %invariant.gep, i64 %indvars.iv
  %43 = getelementptr inbounds nuw i16, ptr %gep, i64 %42
  store i16 %38, ptr %43, align 2, !tbaa !77
  %indvars.iv.next = add nuw nsw i64 %indvars.iv, 1
  %exitcond41.not = icmp eq i64 %indvars.iv.next, 6
  br i1 %exitcond41.not, label %44, label %34, !llvm.loop !121

44:                                               ; preds = %34
  %45 = getelementptr inbounds nuw i8, ptr %.02732, i64 8
  %indvars.iv.next43 = add nuw nsw i64 %indvars.iv42, 6
  %46 = load i16, ptr %3, align 2, !tbaa !72
  %47 = zext i16 %46 to i64
  %48 = icmp samesign ult i64 %indvars.iv.next43, %47
  br i1 %48, label %.preheader28, label %._crit_edge, !llvm.loop !122

._crit_edge:                                      ; preds = %44, %22
  %.1.lcssa = phi i64 [ %.036, %22 ], [ %32, %44 ]
  %49 = add nuw nsw i32 %.02635, 1
  %50 = load i16, ptr %2, align 8, !tbaa !78
  %51 = zext i16 %50 to i32
  %52 = icmp samesign ult i32 %49, %51
  br i1 %52, label %14, label %._crit_edge38, !llvm.loop !123

._crit_edge38:                                    ; preds = %._crit_edge, %1
  tail call void @_ZN6LibRaw4freeEPv(ptr noundef nonnull align 8 dereferenceable(767680) %0, ptr noundef %10)
  ret void
}